target datalayout = "e-m:e-p270:32:32-p271:32:32-p272:64:64-i64:64-i128:128-f80:128-n8:16:32:64-S128"
target triple = "x86_64-pc-linux-gnu"

%struct._header_field_info = type { ptr, ptr, i32, i32, ptr, i64, ptr, i32, i32, i32, i32, ptr }
%struct._dcerpc_info = type { ptr, i32, i64, i8, i8, i8, i32, i32, i32, i32, i32, i32, i32, i32, ptr, ptr, ptr, ptr, %struct.anon }
%struct.anon = type { i8, ptr, ptr, ptr, i8 }
%struct._packet_info = type { ptr, ptr, i32, i32, %struct.nstime_t, %struct.nstime_t, %struct.nstime_t, i8, ptr, ptr, ptr, ptr, %struct._address, %struct._address, %struct._address, %struct._address, %struct._address, %struct._address, i32, ptr, i8, [3 x i8], %struct.anon.0, i32, i32, i32, i32, ptr, i8, ptr, ptr, i16, i16, i32, i32, i16, i32, i32, ptr, ptr, ptr, i8, i8, i16, i16, i16, i32, i16, i16, ptr, ptr, ptr, ptr, ptr, i32, i32 }
%struct.nstime_t = type { i64, i32 }
%struct._address = type { i32, i32, ptr, ptr }
%struct.anon.0 = type { i8, [3 x i8] }

@.str.115 = private unnamed_addr constant [7 x i8] c" %s:%s\00", align 1

; Function Attrs: null_pointer_is_valid sspstrong uwtable
define internal i32 @PIDL_dissect_ipv6address(ptr noundef %0, i32 noundef %1, ptr noundef %2, ptr noundef %3, ptr noundef %4, ptr noundef %5, i32 noundef %6, i32 noundef %7) #0 {
  %9 = alloca i32, align 4
  %10 = alloca ptr, align 8
  %11 = alloca i32, align 4
  %12 = alloca ptr, align 8
  %13 = alloca ptr, align 8
  %14 = alloca ptr, align 8
  %15 = alloca ptr, align 8
  %16 = alloca i32, align 4
  %17 = alloca i32, align 4
  %18 = alloca ptr, align 8
  %19 = alloca ptr, align 8
  store ptr %0, ptr %10, align 8
  store i32 %1, ptr %11, align 4
  store ptr %2, ptr %12, align 8
  store ptr %3, ptr %13, align 8
  store ptr %4, ptr %14, align 8
  store ptr %5, ptr %15, align 8
  store i32 %6, ptr %16, align 4
  store i32 %7, ptr %17, align 4
  %20 = load ptr, ptr %14, align 8
  %21 = getelementptr inbounds nuw %struct._dcerpc_info, ptr %20, i32 0, i32 4
  %22 = load i8, ptr %21, align 1, !range !6, !noundef !7
  %23 = trunc i8 %22 to i1
  br i1 %23, label %24, label %26

24:                                               ; preds = %8
  %25 = load i32, ptr %11, align 4
  store i32 %25, ptr %9, align 4
  br label %75

26:                                               ; preds = %8
  %27 = load ptr, ptr %14, align 8
  %28 = getelementptr inbounds nuw %struct._dcerpc_info, ptr %27, i32 0, i32 5
  %29 = load i8, ptr %28, align 2, !range !6, !noundef !7
  %30 = trunc i8 %29 to i1
  br i1 %30, label %41, label %31

31:                                               ; preds = %26
  %32 = load i32, ptr %11, align 4
  %33 = srem i32 %32, 2
  %34 = icmp ne i32 %33, 0
  br i1 %34, label %35, label %41

35:                                               ; preds = %31
  %36 = load i32, ptr %11, align 4
  %37 = srem i32 %36, 2
  %38 = sub i32 2, %37
  %39 = load i32, ptr %11, align 4
  %40 = add i32 %39, %38
  store i32 %40, ptr %11, align 4
  br label %41

41:                                               ; preds = %35, %31, %26
  %42 = load ptr, ptr %13, align 8
  %43 = load i32, ptr %16, align 4
  %44 = load ptr, ptr %10, align 8
  %45 = load i32, ptr %11, align 4
  %46 = call ptr @proto_tree_add_item(ptr noundef %42, i32 noundef %43, ptr noundef %44, i32 noundef %45, i32 noundef 16, i32 noundef 0)
  %47 = load i32, ptr %17, align 4
  %48 = and i32 %47, 268435456
  %49 = icmp ne i32 %48, 0
  br i1 %49, label %50, label %72

50:                                               ; preds = %41
  call void @llvm.lifetime.start.p0(i64 8, ptr %18) #6
  %51 = load ptr, ptr %12, align 8
  %52 = getelementptr inbounds nuw %struct._packet_info, ptr %51, i32 0, i32 51
  %53 = load ptr, ptr %52, align 8
  %54 = load ptr, ptr %10, align 8
  %55 = load i32, ptr %11, align 4
  %56 = call ptr @tvb_address_to_str(ptr noundef %53, ptr noundef %54, i32 noundef 3, i32 noundef %55)
  store ptr %56, ptr %18, align 8
  call void @llvm.lifetime.start.p0(i64 8, ptr %19) #6
  %57 = load i32, ptr %16, align 4
  %58 = call ptr @proto_registrar_get_nth(i32 noundef %57)
  store ptr %58, ptr %19, align 8
  %59 = load ptr, ptr %13, align 8
  %60 = call ptr @proto_tree_get_parent(ptr noundef %59)
  %61 = load ptr, ptr %19, align 8
  %62 = getelementptr inbounds nuw %struct._header_field_info, ptr %61, i32 0, i32 0
  %63 = load ptr, ptr %62, align 8
  %64 = load ptr, ptr %18, align 8
  call void (ptr, ptr, ...) @proto_item_append_text(ptr noundef %60, ptr noundef @.str.115, ptr noundef %63, ptr noundef %64)
  %65 = load ptr, ptr %12, align 8
  %66 = getelementptr inbounds nuw %struct._packet_info, ptr %65, i32 0, i32 1
  %67 = load ptr, ptr %66, align 8
  %68 = load ptr, ptr %19, align 8
  %69 = getelementptr inbounds nuw %struct._header_field_info, ptr %68, i32 0, i32 0
  %70 = load ptr, ptr %69, align 8
  %71 = load ptr, ptr %18, align 8
  call void (ptr, i32, ptr, ...) @col_append_fstr(ptr noundef %67, i32 noundef 25, ptr noundef @.str.115, ptr noundef %70, ptr noundef %71)
  call void @llvm.lifetime.end.p0(i64 8, ptr %19) #6
  call void @llvm.lifetime.end.p0(i64 8, ptr %18) #6
  br label %72

72:                                               ; preds = %50, %41
  %73 = load i32, ptr %11, align 4
  %74 = add i32 %73, 16
  store i32 %74, ptr %9, align 4
  br label %75

75:                                               ; preds = %72, %24
  %76 = load i32, ptr %9, align 4
  ret i32 %76
}